; Function Attrs: nounwind uwtable
define hidden void @je_arena_extent_dalloc_large_prep(ptr noundef %0, ptr noundef %1, ptr noundef readonly captures(none) %2) local_unnamed_addr #0 {
  %.val = load i64, ptr %2, align 8, !tbaa !153
  %4 = lshr i64 %.val, 20
  %5 = and i64 %4, 255
  %6 = getelementptr inbounds nuw [232 x i64], ptr @je_sz_index2size_tab, i64 0, i64 %5
  %7 = load i64, ptr %6, align 8, !tbaa !11
  tail call fastcc void @arena_large_dalloc_stats_update(ptr noundef %0, ptr noundef %1, i64 noundef %7)
  ret void
}